; Function Attrs: nounwind uwtable
define i32 @UI_UTIL_read_pw(ptr noundef %0, ptr noundef %1, i32 noundef %2, ptr noundef %3, i32 noundef %4) local_unnamed_addr #0 {
  %6 = icmp slt i32 %2, 1
  br i1 %6, label %21, label %7

7:                                                ; preds = %5
  %8 = tail call ptr @UI_new() #5
  %.not = icmp eq ptr %8, null
  br i1 %.not, label %21, label %9

9:                                                ; preds = %7
  %10 = add nsw i32 %2, -1
  %11 = tail call i32 @UI_add_input_string(ptr noundef nonnull %8, ptr noundef %3, i32 noundef 0, ptr noundef %0, i32 noundef 0, i32 noundef %10) #5
  %12 = icmp sgt i32 %11, -1
  %13 = icmp ne i32 %4, 0
  %or.cond = and i1 %13, %12
  br i1 %or.cond, label %14, label %16

14:                                               ; preds = %9
  %15 = tail call i32 @UI_add_verify_string(ptr noundef nonnull %8, ptr noundef %3, i32 noundef 0, ptr noundef %1, i32 noundef 0, i32 noundef %10, ptr noundef %0) #5
  br label %16

16:                                               ; preds = %14, %9
  %.1 = phi i32 [ %15, %14 ], [ %11, %9 ]
  %17 = icmp sgt i32 %.1, -1
  br i1 %17, label %18, label %20

18:                                               ; preds = %16
  %19 = tail call i32 @UI_process(ptr noundef nonnull %8) #5
  br label %20

20:                                               ; preds = %18, %16
  %.2 = phi i32 [ %19, %18 ], [ %.1, %16 ]
  tail call void @UI_free(ptr noundef nonnull %8) #5
  br label %21

21:                                               ; preds = %7, %20, %5
  %.0 = phi i32 [ -1, %5 ], [ %.2, %20 ], [ -2, %7 ]
  ret i32 %.0
}